; Function Attrs: nounwind uwtable
define hidden void @_PyStack_UnpackDict_FreeNoDecRef(ptr noundef %0, ptr noundef %1) local_unnamed_addr #0 {
  %3 = getelementptr i8, ptr %0, i64 -8
  tail call void @PyMem_Free(ptr noundef %3) #10
  %4 = load i32, ptr %1, align 8, !tbaa !24
  %.not.i = icmp sgt i32 %4, -1
  br i1 %.not.i, label %5, label %Py_DECREF.exit

5:                                                ; preds = %2
  %6 = add nsw i32 %4, -1
  store i32 %6, ptr %1, align 8, !tbaa !24
  %7 = icmp eq i32 %6, 0
  br i1 %7, label %8, label %Py_DECREF.exit

8:                                                ; preds = %5
  tail call void @_Py_Dealloc(ptr noundef nonnull %1) #10
  br label %Py_DECREF.exit

Py_DECREF.exit:                                   ; preds = %2, %5, %8
  ret void
}